target datalayout = "e-m:e-p270:32:32-p271:32:32-p272:64:64-i64:64-i128:128-f80:128-n8:16:32:64-S128"
target triple = "x86_64-pc-linux-gnu"

%struct.PREDICATELOCKTARGETTAG = type { i32, i32, i32, i32 }
%struct.LWLock = type { i16, %struct.pg_atomic_uint32, %struct.proclist_head }
%struct.pg_atomic_uint32 = type { i32 }
%struct.proclist_head = type { i32, i32 }
%struct.dlist_head = type { %struct.dlist_node }
%struct.dlist_node = type { ptr, ptr }
%struct.SERIALIZABLEXACT = type { %struct.VirtualTransactionId, i64, i64, %union.anon, %struct.dlist_head, %struct.dlist_head, %struct.dlist_head, %struct.dlist_node, %struct.dlist_node, %struct.LWLock, %struct.dlist_head, i32, i32, i32, i32, i32, i32 }
%struct.VirtualTransactionId = type { i32, i32 }
%union.anon = type { i64 }
%struct.SnapshotData = type { i32, i32, i32, ptr, i32, ptr, i32, i8, i8, i8, i32, i32, ptr, i32, i32, %struct.pairingheap_node, i64 }
%struct.pairingheap_node = type { ptr, ptr, ptr }
%struct.RelationData = type { %struct.RelFileLocator, ptr, i32, i32, i8, i8, i8, i8, i8, i32, i32, i32, i32, ptr, ptr, i32, %struct.LockInfoData, ptr, ptr, ptr, ptr, ptr, i8, ptr, ptr, ptr, ptr, ptr, ptr, i32, ptr, i8, ptr, ptr, i32, i8, i32, ptr, i8, ptr, ptr, ptr, ptr, ptr, ptr, ptr, i32, ptr, ptr, ptr, ptr, ptr, ptr, ptr, ptr, ptr, ptr, ptr, ptr, ptr, ptr, ptr, ptr, ptr, ptr, ptr, i32, i8, ptr }
%struct.RelFileLocator = type { i32, i32, i32 }
%struct.LockInfoData = type { %struct.LockRelId }
%struct.LockRelId = type { i32, i32 }
%struct.FormData_pg_class = type { i32, %struct.nameData, i32, i32, i32, i32, i32, i32, i32, i32, float, i32, i32, i8, i8, i8, i8, i16, i16, i8, i8, i8, i8, i8, i8, i8, i8, i32, i32, i32 }
%struct.nameData = type { [64 x i8] }

@MySerializableXact = internal global ptr null, align 8

; Function Attrs: inlinehint nounwind uwtable
define internal zeroext i1 @PredicateLockingNeededForRelation(ptr noundef %0) #3 {
  %2 = alloca ptr, align 8
  store ptr %0, ptr %2, align 8
  %3 = load ptr, ptr %2, align 8
  %4 = getelementptr inbounds nuw %struct.RelationData, ptr %3, i32 0, i32 15
  %5 = load i32, ptr %4, align 8
  %6 = icmp ult i32 %5, 12000
  br i1 %6, label %15, label %7

7:                                                ; preds = %1
  %8 = load ptr, ptr %2, align 8
  %9 = getelementptr inbounds nuw %struct.RelationData, ptr %8, i32 0, i32 13
  %10 = load ptr, ptr %9, align 8
  %11 = getelementptr inbounds nuw %struct.FormData_pg_class, ptr %10, i32 0, i32 15
  %12 = load i8, ptr %11, align 2
  %13 = sext i8 %12 to i32
  %14 = icmp eq i32 %13, 116
  br label %15

15:                                               ; preds = %7, %1
  %16 = phi i1 [ true, %1 ], [ %14, %7 ]
  %17 = xor i1 %16, true
  ret i1 %17
}

; Function Attrs: inlinehint nounwind uwtable
define internal zeroext i1 @SerializationNeededForRead(ptr noundef %0, ptr noundef %1) #3 {
  %3 = alloca i1, align 1
  %4 = alloca ptr, align 8
  %5 = alloca ptr, align 8
  store ptr %0, ptr %4, align 8
  store ptr %1, ptr %5, align 8
  %6 = load ptr, ptr @MySerializableXact, align 8
  %7 = icmp eq ptr %6, null
  br i1 %7, label %8, label %9

8:                                                ; preds = %2
  store i1 false, ptr %3, align 1
  br label %32

9:                                                ; preds = %2
  %10 = load ptr, ptr %5, align 8
  %11 = getelementptr inbounds nuw %struct.SnapshotData, ptr %10, i32 0, i32 0
  %12 = load i32, ptr %11, align 8
  %13 = icmp eq i32 %12, 0
  br i1 %13, label %20, label %14

14:                                               ; preds = %9
  %15 = load ptr, ptr %5, align 8
  %16 = getelementptr inbounds nuw %struct.SnapshotData, ptr %15, i32 0, i32 0
  %17 = load i32, ptr %16, align 8
  %18 = icmp eq i32 %17, 5
  br i1 %18, label %20, label %19

19:                                               ; preds = %14
  store i1 false, ptr %3, align 1
  br label %32

20:                                               ; preds = %14, %9
  %21 = load ptr, ptr @MySerializableXact, align 8
  %22 = getelementptr inbounds nuw %struct.SERIALIZABLEXACT, ptr %21, i32 0, i32 14
  %23 = load i32, ptr %22, align 4
  %24 = and i32 %23, 128
  %25 = icmp ne i32 %24, 0
  br i1 %25, label %26, label %27

26:                                               ; preds = %20
  call void @ReleasePredicateLocks(i1 noundef zeroext false, i1 noundef zeroext true)
  store i1 false, ptr %3, align 1
  br label %32

27:                                               ; preds = %20
  %28 = load ptr, ptr %4, align 8
  %29 = call zeroext i1 @PredicateLockingNeededForRelation(ptr noundef %28)
  br i1 %29, label %31, label %30

30:                                               ; preds = %27
  store i1 false, ptr %3, align 1
  br label %32

31:                                               ; preds = %27
  store i1 true, ptr %3, align 1
  br label %32

32:                                               ; preds = %31, %30, %26, %19, %8
  %33 = load i1, ptr %3, align 1
  ret i1 %33
}

; Function Attrs: nounwind uwtable
define dso_local void @PredicateLockRelation(ptr noundef %0, ptr noundef %1) #0 {
  %3 = alloca ptr, align 8
  %4 = alloca ptr, align 8
  %5 = alloca %struct.PREDICATELOCKTARGETTAG, align 4
  %6 = alloca i32, align 4
  store ptr %0, ptr %3, align 8
  store ptr %1, ptr %4, align 8
  call void @llvm.lifetime.start.p0(i64 16, ptr %5) #10
  %7 = load ptr, ptr %3, align 8
  %8 = load ptr, ptr %4, align 8
  %9 = call zeroext i1 @SerializationNeededForRead(ptr noundef %7, ptr noundef %8)
  br i1 %9, label %11, label %10

10:                                               ; preds = %2
  store i32 1, ptr %6, align 4
  br label %23

11:                                               ; preds = %2
  %12 = load ptr, ptr %3, align 8
  %13 = getelementptr inbounds nuw %struct.RelationData, ptr %12, i32 0, i32 0
  %14 = getelementptr inbounds nuw %struct.RelFileLocator, ptr %13, i32 0, i32 1
  %15 = load i32, ptr %14, align 4
  %16 = getelementptr inbounds nuw %struct.PREDICATELOCKTARGETTAG, ptr %5, i32 0, i32 0
  store i32 %15, ptr %16, align 4
  %17 = load ptr, ptr %3, align 8
  %18 = getelementptr inbounds nuw %struct.RelationData, ptr %17, i32 0, i32 15
  %19 = load i32, ptr %18, align 8
  %20 = getelementptr inbounds nuw %struct.PREDICATELOCKTARGETTAG, ptr %5, i32 0, i32 1
  store i32 %19, ptr %20, align 4
  %21 = getelementptr inbounds nuw %struct.PREDICATELOCKTARGETTAG, ptr %5, i32 0, i32 2
  store i32 -1, ptr %21, align 4
  %22 = getelementptr inbounds nuw %struct.PREDICATELOCKTARGETTAG, ptr %5, i32 0, i32 3
  store i32 0, ptr %22, align 4
  call void @PredicateLockAcquire(ptr noundef %5)
  store i32 0, ptr %6, align 4
  br label %23

23:                                               ; preds = %11, %10
  call void @llvm.lifetime.end.p0(i64 16, ptr %5) #10
  %24 = load i32, ptr %6, align 4
  switch i32 %24, label %26 [
    i32 0, label %25
    i32 1, label %25
  ]

25:                                               ; preds = %23, %23
  ret void

26:                                               ; preds = %23
  unreachable
}