; Function Attrs: nounwind uwtable
define dso_local void @PredicateLockRelation(ptr noundef readonly captures(none) %0, ptr noundef readonly captures(none) %1) local_unnamed_addr #0 {
  %3 = alloca %struct.PREDICATELOCKTARGETTAG, align 4
  call void @llvm.lifetime.start.p0(i64 16, ptr nonnull %3) #12
  %4 = load ptr, ptr @MySerializableXact, align 8
  %5 = icmp eq ptr %4, null
  br i1 %5, label %SerializationNeededForRead.exit.thread, label %6

6:                                                ; preds = %2
  %7 = load i32, ptr %1, align 8
  switch i32 %7, label %SerializationNeededForRead.exit.thread [
    i32 0, label %8
    i32 5, label %8
  ]

8:                                                ; preds = %6, %6
  %9 = getelementptr inbounds nuw i8, ptr %4, i64 156
  %10 = load i32, ptr %9, align 4
  %11 = and i32 %10, 128
  %.not.i = icmp eq i32 %11, 0
  br i1 %.not.i, label %13, label %12

12:                                               ; preds = %8
  tail call void @ReleasePredicateLocks(i1 noundef zeroext false, i1 noundef zeroext true)
  br label %SerializationNeededForRead.exit.thread

13:                                               ; preds = %8
  %14 = getelementptr inbounds nuw i8, ptr %0, i64 72
  %15 = load i32, ptr %14, align 8
  %16 = icmp ult i32 %15, 12000
  br i1 %16, label %SerializationNeededForRead.exit.thread, label %SerializationNeededForRead.exit

SerializationNeededForRead.exit:                  ; preds = %13
  %17 = getelementptr inbounds nuw i8, ptr %0, i64 56
  %18 = load ptr, ptr %17, align 8
  %19 = getelementptr inbounds nuw i8, ptr %18, i64 114
  %20 = load i8, ptr %19, align 2
  %.not = icmp eq i8 %20, 116
  br i1 %.not, label %SerializationNeededForRead.exit.thread, label %21

21:                                               ; preds = %SerializationNeededForRead.exit
  %22 = getelementptr inbounds nuw i8, ptr %0, i64 4
  %23 = load i32, ptr %22, align 4
  store i32 %23, ptr %3, align 4
  %24 = getelementptr inbounds nuw i8, ptr %3, i64 4
  store i32 %15, ptr %24, align 4
  %25 = getelementptr inbounds nuw i8, ptr %3, i64 8
  store i32 -1, ptr %25, align 4
  %26 = getelementptr inbounds nuw i8, ptr %3, i64 12
  store i32 0, ptr %26, align 4
  call fastcc void @PredicateLockAcquire(ptr noundef %3)
  br label %SerializationNeededForRead.exit.thread

SerializationNeededForRead.exit.thread:           ; preds = %13, %6, %2, %12, %SerializationNeededForRead.exit, %21
  call void @llvm.lifetime.end.p0(i64 16, ptr nonnull %3) #12
  ret void
}